; ModuleID = '15/719.c'
source_filename = "15/719.c"
target datalayout = "e-m:e-p270:32:32-p271:32:32-p272:64:64-i64:64-f80:128-n8:16:32:64-S128"
target triple = "x86_64-pc-linux-gnu"

@.str = private unnamed_addr constant [4 x i8] c"%d\0A\00", align 1
@.str.1 = private unnamed_addr constant [3 x i8] c"%d\00", align 1
@.str.2 = private unnamed_addr constant [2 x i8] c"\0A\00", align 1

; Function Attrs: noinline nounwind uwtable
define dso_local i32 @main() #0 {
  %1 = alloca i32, align 4
  %2 = alloca i32, align 4
  %3 = alloca i8*, align 8
  %4 = alloca i64, align 8
  %5 = alloca i64, align 8
  %6 = alloca i32, align 4
  %7 = alloca i32, align 4
  %8 = alloca i32, align 4
  %9 = alloca i32, align 4
  %10 = alloca i32, align 4
  %11 = alloca i32, align 4
  %12 = alloca i32, align 4
  store i32 0, i32* %1, align 4
  %13 = call i32 (i8*, ...) @__isoc99_scanf(i8* getelementptr inbounds ([4 x i8], [4 x i8]* @.str, i64 0, i64 0), i32* %2)
  %14 = load i32, i32* %2, align 4
  %15 = zext i32 %14 to i64
  %16 = load i32, i32* %2, align 4
  %17 = zext i32 %16 to i64
  %18 = call i8* @llvm.stacksave()
  store i8* %18, i8** %3, align 8
  %19 = mul nuw i64 %15, %17
  %20 = alloca i32, i64 %19, align 16
  store i64 %15, i64* %4, align 8
  store i64 %17, i64* %5, align 8
  store i32 0, i32* %6, align 4
  br label %21

21:                                               ; preds = %44, %0
  %22 = load i32, i32* %6, align 4
  %23 = load i32, i32* %2, align 4
  %24 = icmp slt i32 %22, %23
  br i1 %24, label %25, label %47

25:                                               ; preds = %21
  store i32 0, i32* %7, align 4
  br label %26

26:                                               ; preds = %39, %25
  %27 = load i32, i32* %7, align 4
  %28 = load i32, i32* %2, align 4
  %29 = icmp slt i32 %27, %28
  br i1 %29, label %30, label %42

30:                                               ; preds = %26
  %31 = load i32, i32* %6, align 4
  %32 = sext i32 %31 to i64
  %33 = mul nsw i64 %32, %17
  %34 = getelementptr inbounds i32, i32* %20, i64 %33
  %35 = load i32, i32* %7, align 4
  %36 = sext i32 %35 to i64
  %37 = getelementptr inbounds i32, i32* %34, i64 %36
  %38 = call i32 (i8*, ...) @__isoc99_scanf(i8* getelementptr inbounds ([3 x i8], [3 x i8]* @.str.1, i64 0, i64 0), i32* %37)
  br label %39

39:                                               ; preds = %30
  %40 = load i32, i32* %7, align 4
  %41 = add nsw i32 %40, 1
  store i32 %41, i32* %7, align 4
  br label %26

42:                                               ; preds = %26
  %43 = call i32 (i8*, ...) @__isoc99_scanf(i8* getelementptr inbounds ([2 x i8], [2 x i8]* @.str.2, i64 0, i64 0))
  br label %44

44:                                               ; preds = %42
  %45 = load i32, i32* %6, align 4
  %46 = add nsw i32 %45, 1
  store i32 %46, i32* %6, align 4
  br label %21

47:                                               ; preds = %21
  store i32 0, i32* %6, align 4
  br label %48

48:                                               ; preds = %75, %47
  %49 = load i32, i32* %6, align 4
  %50 = load i32, i32* %2, align 4
  %51 = icmp slt i32 %49, %50
  br i1 %51, label %52, label %78

52:                                               ; preds = %48
  store i32 0, i32* %7, align 4
  br label %53

53:                                               ; preds = %71, %52
  %54 = load i32, i32* %7, align 4
  %55 = load i32, i32* %2, align 4
  %56 = icmp slt i32 %54, %55
  br i1 %56, label %57, label %74

57:                                               ; preds = %53
  %58 = load i32, i32* %6, align 4
  %59 = sext i32 %58 to i64
  %60 = mul nsw i64 %59, %17
  %61 = getelementptr inbounds i32, i32* %20, i64 %60
  %62 = load i32, i32* %7, align 4
  %63 = sext i32 %62 to i64
  %64 = getelementptr inbounds i32, i32* %61, i64 %63
  %65 = load i32, i32* %64, align 4
  %66 = icmp eq i32 %65, 0
  br i1 %66, label %67, label %70

67:                                               ; preds = %57
  %68 = load i32, i32* %6, align 4
  store i32 %68, i32* %8, align 4
  %69 = load i32, i32* %7, align 4
  store i32 %69, i32* %9, align 4
  br label %70

70:                                               ; preds = %67, %57
  br label %71

71:                                               ; preds = %70
  %72 = load i32, i32* %7, align 4
  %73 = add nsw i32 %72, 1
  store i32 %73, i32* %7, align 4
  br label %53

74:                                               ; preds = %53
  br label %75

75:                                               ; preds = %74
  %76 = load i32, i32* %6, align 4
  %77 = add nsw i32 %76, 1
  store i32 %77, i32* %6, align 4
  br label %48

78:                                               ; preds = %48
  %79 = load i32, i32* %2, align 4
  %80 = sub nsw i32 %79, 1
  store i32 %80, i32* %6, align 4
  br label %81

81:                                               ; preds = %108, %78
  %82 = load i32, i32* %6, align 4
  %83 = icmp sge i32 %82, 0
  br i1 %83, label %84, label %111

84:                                               ; preds = %81
  %85 = load i32, i32* %2, align 4
  %86 = sub nsw i32 %85, 1
  store i32 %86, i32* %7, align 4
  br label %87

87:                                               ; preds = %104, %84
  %88 = load i32, i32* %7, align 4
  %89 = icmp sge i32 %88, 0
  br i1 %89, label %90, label %107

90:                                               ; preds = %87
  %91 = load i32, i32* %6, align 4
  %92 = sext i32 %91 to i64
  %93 = mul nsw i64 %92, %17
  %94 = getelementptr inbounds i32, i32* %20, i64 %93
  %95 = load i32, i32* %7, align 4
  %96 = sext i32 %95 to i64
  %97 = getelementptr inbounds i32, i32* %94, i64 %96
  %98 = load i32, i32* %97, align 4
  %99 = icmp eq i32 %98, 0
  br i1 %99, label %100, label %103

100:                                              ; preds = %90
  %101 = load i32, i32* %6, align 4
  store i32 %101, i32* %10, align 4
  %102 = load i32, i32* %7, align 4
  store i32 %102, i32* %11, align 4
  br label %103

103:                                              ; preds = %100, %90
  br label %104

104:                                              ; preds = %103
  %105 = load i32, i32* %7, align 4
  %106 = add nsw i32 %105, -1
  store i32 %106, i32* %7, align 4
  br label %87

107:                                              ; preds = %87
  br label %108

108:                                              ; preds = %107
  %109 = load i32, i32* %6, align 4
  %110 = add nsw i32 %109, -1
  store i32 %110, i32* %6, align 4
  br label %81

111:                                              ; preds = %81
  %112 = load i32, i32* %10, align 4
  %113 = load i32, i32* %8, align 4
  %114 = sub nsw i32 %112, %113
  %115 = add nsw i32 %114, 1
  %116 = load i32, i32* %11, align 4
  %117 = load i32, i32* %9, align 4
  %118 = sub nsw i32 %116, %117
  %119 = add nsw i32 %118, 1
  %120 = mul nsw i32 %115, %119
  store i32 %120, i32* %12, align 4
  %121 = load i32, i32* %12, align 4
  %122 = call i32 (i8*, ...) @printf(i8* getelementptr inbounds ([3 x i8], [3 x i8]* @.str.1, i64 0, i64 0), i32 %121)
  %123 = load i8*, i8** %3, align 8
  call void @llvm.stackrestore(i8* %123)
  %124 = load i32, i32* %1, align 4
  ret i32 %124
}

declare dso_local i32 @__isoc99_scanf(i8*, ...) #1

; Function Attrs: nounwind
declare i8* @llvm.stacksave() #2

declare dso_local i32 @printf(i8*, ...) #1

; Function Attrs: nounwind
declare void @llvm.stackrestore(i8*) #2


!llvm.module.flags = !{!0}
!llvm.ident = !{!1}

!0 = !{i32 1, !"wchar_size", i32 4}
!1 = !{!"clang version 10.0.0-4ubuntu1 "}
